	.file	"fibo_adv.c"
	.section	.rodata
.LC0:
	.string	"%d"
.LC1:
	.string	"Fibonacci number at %d is %d\n"
	.text
	.globl	main
	.type	main, @function
main:
.LFB0:
	.cfi_startproc
	pushq	%rbp
	.cfi_def_cfa_offset 16
	.cfi_offset 6, -16
	movq	%rsp, %rbp
	.cfi_def_cfa_register 6
	subq	$16, %rsp
	movq	%fs:40, %rax
	movq	%rax, -8(%rbp)
	xorl	%eax, %eax
	leaq	-16(%rbp), %rax
	movq	%rax, %rsi
	movl	$.LC0, %edi
	movl	$0, %eax
	call	__isoc99_scanf
	movl	-16(%rbp), %eax
	subl	$1, %eax
	movl	%eax, %edi
	call	calculate_fibo
	movl	%eax, -12(%rbp)
	movl	-16(%rbp), %eax
	movl	-12(%rbp), %edx
	movl	%eax, %esi
	movl	$.LC1, %edi
	movl	$0, %eax
	call	printf
	movl	$0, %eax
	movq	-8(%rbp), %rcx
	xorq	%fs:40, %rcx
	je	.L3
	call	__stack_chk_fail
.L3:
	leave
	.cfi_def_cfa 7, 8
	ret
	.cfi_endproc
.LFE0:
	.size	main, .-main
	.globl	calculate_fibo
	.type	calculate_fibo, @function
calculate_fibo:
.LFB1:
	.cfi_startproc
	pushq	%rbp
	.cfi_def_cfa_offset 16
	.cfi_offset 6, -16
	movq	%rsp, %rbp
	.cfi_def_cfa_register 6
	pushq	%rbx
	subq	$24, %rsp
	.cfi_offset 3, -24
	movl	%edi, -20(%rbp)
	cmpl	$0, -20(%rbp)
	jne	.L5
	movl	$0, %eax
	jmp	.L6
.L5:
	cmpl	$1, -20(%rbp)
	jne	.L7
	movl	$1, %eax
	jmp	.L6
.L7:
	movl	-20(%rbp), %eax
	subl	$1, %eax
	movl	%eax, %edi
	call	calculate_fibo
	movl	%eax, %ebx
	movl	-20(%rbp), %eax
	subl	$2, %eax
	movl	%eax, %edi
	call	calculate_fibo
	addl	%ebx, %eax
.L6:
	addq	$24, %rsp
	popq	%rbx
	popq	%rbp
	.cfi_def_cfa 7, 8
	ret
	.cfi_endproc
.LFE1:
	.size	calculate_fibo, .-calculate_fibo
	.ident	"GCC: (Ubuntu 5.4.0-6ubuntu1~16.04.2) 5.4.0 20160609"
	.section	.note.GNU-stack,"",@progbits
